---
triple:          'arm64-apple-darwin'
binary-path:     '/Users/surajsingh/repos/CSES/Concert_Tickets'
relocations:
  - { offset: 0x1B192, size: 0x8, addend: 0x0, symName: __ZStL8__ioinit, symObjAddr: 0x7216A, symBinAddr: 0x100008000, symSize: 0x0 }
  - { offset: 0x1B6D7, size: 0x8, addend: 0x0, symName: __ZNSt3tr112_GLOBAL__N_1L6ignoreE, symObjAddr: 0x7216B, symBinAddr: 0x100008001, symSize: 0x0 }
  - { offset: 0x1BA74, size: 0x8, addend: 0x0, symName: __GLOBAL__sub_I_Concert_Tickets.cpp, symObjAddr: 0x15E8, symBinAddr: 0x1000018D4, symSize: 0x14 }
  - { offset: 0x1BA8C, size: 0x8, addend: 0x0, symName: __Z41__static_initialization_and_destruction_0v, symObjAddr: 0x15AC, symBinAddr: 0x100001898, symSize: 0x3C }
  - { offset: 0x1BB22, size: 0x8, addend: 0x0, symName: __ZNSt15__new_allocatorISt13_Rb_tree_nodeIiEE8allocateEmPKv, symObjAddr: 0x10C0, symBinAddr: 0x100001808, symSize: 0x90 }
  - { offset: 0x1BC26, size: 0x8, addend: 0x0, symName: __ZN9__gnu_cxx16__aligned_membufIiE7_M_addrEv, symObjAddr: 0x10AC, symBinAddr: 0x1000017F4, symSize: 0x14 }
  - { offset: 0x1BC50, size: 0x8, addend: 0x0, symName: __ZNSt8_Rb_treeIiiSt9_IdentityIiESt4lessIiESaIiEE17_M_construct_nodeIJRKiEEEvPSt13_Rb_tree_nodeIiEDpOT_, symObjAddr: 0xFAC, symBinAddr: 0x1000016F4, symSize: 0x100 }
  - { offset: 0x1BDCE, size: 0x8, addend: 0x0, symName: __ZNSt8_Rb_treeIiiSt9_IdentityIiESt4lessIiESaIiEE11_M_get_nodeEv, symObjAddr: 0xF70, symBinAddr: 0x1000016B8, symSize: 0x3C }
  - { offset: 0x1BE25, size: 0x8, addend: 0x0, symName: __ZNSt15__new_allocatorISt13_Rb_tree_nodeIiEE10deallocateEPS1_m, symObjAddr: 0xF34, symBinAddr: 0x10000167C, symSize: 0x3C }
  - { offset: 0x1BE9B, size: 0x8, addend: 0x0, symName: __ZN9__gnu_cxx16__aligned_membufIiE6_M_ptrEv, symObjAddr: 0xF18, symBinAddr: 0x100001660, symSize: 0x1C }
  - { offset: 0x1BEC5, size: 0x8, addend: 0x0, symName: __ZNSt8_Rb_treeIiiSt9_IdentityIiESt4lessIiESaIiEE14_M_create_nodeIJRKiEEEPSt13_Rb_tree_nodeIiEDpOT_, symObjAddr: 0xED4, symBinAddr: 0x10000161C, symSize: 0x44 }
  - { offset: 0x1BF69, size: 0x8, addend: 0x0, symName: __ZNSt8_Rb_treeIiiSt9_IdentityIiESt4lessIiESaIiEE6_S_keyERKSt13_Rb_tree_nodeIiE, symObjAddr: 0xEAC, symBinAddr: 0x1000015F4, symSize: 0x28 }
  - { offset: 0x1BFF6, size: 0x8, addend: 0x0, symName: __ZNSt13_Rb_tree_nodeIiE9_M_valptrEv, symObjAddr: 0xE8C, symBinAddr: 0x1000015D4, symSize: 0x20 }
  - { offset: 0x1C020, size: 0x8, addend: 0x0, symName: __ZNSt8_Rb_treeIiiSt9_IdentityIiESt4lessIiESaIiEE21_M_get_Node_allocatorEv, symObjAddr: 0xE78, symBinAddr: 0x1000015C0, symSize: 0x14 }
  - { offset: 0x1C046, size: 0x8, addend: 0x0, symName: __ZNSt9__rb_tree12_Node_traitsIiPiE22_S_rebalance_for_eraseEPSt18_Rb_tree_node_baseRS3_, symObjAddr: 0xE54, symBinAddr: 0x10000159C, symSize: 0x24 }
  - { offset: 0x1C089, size: 0x8, addend: 0x0, symName: __ZNK9__gnu_cxx16__aligned_membufIiE7_M_addrEv, symObjAddr: 0xE40, symBinAddr: 0x100001588, symSize: 0x14 }
  - { offset: 0x1C0AF, size: 0x8, addend: 0x0, symName: __ZNSt9__rb_tree12_Node_traitsIiPiE23_S_insert_and_rebalanceEbPSt18_Rb_tree_node_baseS4_RS3_, symObjAddr: 0xE08, symBinAddr: 0x100001550, symSize: 0x38 }
  - { offset: 0x1C11B, size: 0x8, addend: 0x0, symName: __ZNKSt8_Rb_treeIiiSt9_IdentityIiESt4lessIiESaIiEE11_Alloc_nodeclIRKiEEPSt13_Rb_tree_nodeIiEOT_, symObjAddr: 0xDD8, symBinAddr: 0x100001520, symSize: 0x30 }
  - { offset: 0x1C1CB, size: 0x8, addend: 0x0, symName: __ZNSt4pairIPSt18_Rb_tree_node_baseS1_EC1IRS1_S4_Lb1EEEOT_OT0_, symObjAddr: 0xD8C, symBinAddr: 0x1000014D4, symSize: 0x4C }
  - { offset: 0x1C259, size: 0x8, addend: 0x0, symName: __ZNSt8_Rb_treeIiiSt9_IdentityIiESt4lessIiESaIiEE8_S_rightEPSt18_Rb_tree_node_base, symObjAddr: 0xD74, symBinAddr: 0x1000014BC, symSize: 0x18 }
  - { offset: 0x1C283, size: 0x8, addend: 0x0, symName: __ZNSt8_Rb_treeIiiSt9_IdentityIiESt4lessIiESaIiEE7_S_leftEPSt18_Rb_tree_node_base, symObjAddr: 0xD5C, symBinAddr: 0x1000014A4, symSize: 0x18 }
  - { offset: 0x1C2B1, size: 0x8, addend: 0x0, symName: __ZNKSt4lessIiEclERKiS2_, symObjAddr: 0xD28, symBinAddr: 0x100001470, symSize: 0x34 }
  - { offset: 0x1C2F9, size: 0x8, addend: 0x0, symName: __ZNSt8_Rb_treeIiiSt9_IdentityIiESt4lessIiESaIiEE6_S_keyEPSt18_Rb_tree_node_base, symObjAddr: 0xD0C, symBinAddr: 0x100001454, symSize: 0x1C }
  - { offset: 0x1C327, size: 0x8, addend: 0x0, symName: __ZNSt8_Rb_treeIiiSt9_IdentityIiESt4lessIiESaIiEE11_M_put_nodeEPSt13_Rb_tree_nodeIiE, symObjAddr: 0xCC0, symBinAddr: 0x100001408, symSize: 0x4C }
  - { offset: 0x1C398, size: 0x8, addend: 0x0, symName: __ZNSt8_Rb_treeIiiSt9_IdentityIiESt4lessIiESaIiEE15_M_destroy_nodeEPSt13_Rb_tree_nodeIiE, symObjAddr: 0xC68, symBinAddr: 0x1000013B0, symSize: 0x58 }
  - { offset: 0x1C42D, size: 0x8, addend: 0x0, symName: __ZNSt8_Rb_treeIiiSt9_IdentityIiESt4lessIiESaIiEE12_M_erase_auxESt23_Rb_tree_const_iteratorIiE, symObjAddr: 0xC08, symBinAddr: 0x100001350, symSize: 0x60 }
  - { offset: 0x1C479, size: 0x8, addend: 0x0, symName: __ZNSt23_Rb_tree_const_iteratorIiEppEv, symObjAddr: 0xBD8, symBinAddr: 0x100001320, symSize: 0x30 }
  - { offset: 0x1C4A5, size: 0x8, addend: 0x0, symName: __ZStneRKSt23_Rb_tree_const_iteratorIiES2_, symObjAddr: 0xBA8, symBinAddr: 0x1000012F0, symSize: 0x30 }
  - { offset: 0x1C4E4, size: 0x8, addend: 0x0, symName: __ZNSt8_Rb_treeIiiSt9_IdentityIiESt4lessIiESaIiEE3endEv, symObjAddr: 0xB7C, symBinAddr: 0x1000012C4, symSize: 0x2C }
  - { offset: 0x1C50E, size: 0x8, addend: 0x0, symName: __ZNK9__gnu_cxx16__aligned_membufIiE6_M_ptrEv, symObjAddr: 0xB60, symBinAddr: 0x1000012A8, symSize: 0x1C }
  - { offset: 0x1C560, size: 0x8, addend: 0x0, symName: __ZNSt23_Rb_tree_const_iteratorIiEC1EPSt18_Rb_tree_node_base, symObjAddr: 0xB3C, symBinAddr: 0x100001284, symSize: 0x24 }
  - { offset: 0x1C5B7, size: 0x8, addend: 0x0, symName: __ZNSt17_Rb_tree_iteratorIiEC1EPSt18_Rb_tree_node_base, symObjAddr: 0xB18, symBinAddr: 0x100001260, symSize: 0x24 }
  - { offset: 0x1C5E6, size: 0x8, addend: 0x0, symName: __ZNKSt8_Rb_treeIiiSt9_IdentityIiESt4lessIiESaIiEE6_M_endEv, symObjAddr: 0xAF8, symBinAddr: 0x100001240, symSize: 0x20 }
  - { offset: 0x1C610, size: 0x8, addend: 0x0, symName: __ZNKSt8_Rb_treeIiiSt9_IdentityIiESt4lessIiESaIiEE8_M_beginEv, symObjAddr: 0xAE0, symBinAddr: 0x100001228, symSize: 0x18 }
  - { offset: 0x1C63A, size: 0x8, addend: 0x0, symName: __ZNKSt8_Rb_treeIiiSt9_IdentityIiESt4lessIiESaIiEE14_M_upper_boundEPSt18_Rb_tree_node_baseS7_RKi, symObjAddr: 0xA58, symBinAddr: 0x1000011A0, symSize: 0x88 }
  - { offset: 0x1C69D, size: 0x8, addend: 0x0, symName: __ZNSt8_Rb_treeIiiSt9_IdentityIiESt4lessIiESaIiEE10_M_insert_IRKiNS5_11_Alloc_nodeEEESt17_Rb_tree_iteratorIiEPSt18_Rb_tree_node_baseSD_OT_RT0_, symObjAddr: 0x960, symBinAddr: 0x1000010A8, symSize: 0xF8 }
  - { offset: 0x1C7B2, size: 0x8, addend: 0x0, symName: __ZNSt8_Rb_treeIiiSt9_IdentityIiESt4lessIiESaIiEE11_Alloc_nodeC1ERS5_, symObjAddr: 0x93C, symBinAddr: 0x100001084, symSize: 0x24 }
  - { offset: 0x1C7E1, size: 0x8, addend: 0x0, symName: __ZNKSt9_IdentityIiEclERKi, symObjAddr: 0x924, symBinAddr: 0x10000106C, symSize: 0x18 }
  - { offset: 0x1C81C, size: 0x8, addend: 0x0, symName: __ZNSt8_Rb_treeIiiSt9_IdentityIiESt4lessIiESaIiEE23_M_get_insert_equal_posERKi, symObjAddr: 0x880, symBinAddr: 0x100000FC8, symSize: 0xA4 }
  - { offset: 0x1C879, size: 0x8, addend: 0x0, symName: __ZNSt13_Rb_tree_nodeIiE11_M_node_ptrEv, symObjAddr: 0x86C, symBinAddr: 0x100000FB4, symSize: 0x14 }
  - { offset: 0x1C8A3, size: 0x8, addend: 0x0, symName: __ZNSt8_Rb_treeIiiSt9_IdentityIiESt4lessIiESaIiEE12_M_drop_nodeEPSt13_Rb_tree_nodeIiE, symObjAddr: 0x838, symBinAddr: 0x100000F80, symSize: 0x34 }
  - { offset: 0x1C8DA, size: 0x8, addend: 0x0, symName: __ZNSt8_Rb_treeIiiSt9_IdentityIiESt4lessIiESaIiEE7_S_leftEPSt13_Rb_tree_nodeIiE, symObjAddr: 0x800, symBinAddr: 0x100000F48, symSize: 0x38 }
  - { offset: 0x1C904, size: 0x8, addend: 0x0, symName: __ZNSt8_Rb_treeIiiSt9_IdentityIiESt4lessIiESaIiEE8_S_rightEPSt13_Rb_tree_nodeIiE, symObjAddr: 0x7C8, symBinAddr: 0x100000F10, symSize: 0x38 }
  - { offset: 0x1C948, size: 0x8, addend: 0x0, symName: __ZNSt8_Rb_treeIiiSt9_IdentityIiESt4lessIiESaIiEE5eraseB5cxx11ESt23_Rb_tree_const_iteratorIiE, symObjAddr: 0x71C, symBinAddr: 0x100000E64, symSize: 0xAC }
  - { offset: 0x1C9B1, size: 0x8, addend: 0x0, symName: __ZNKSt13_Rb_tree_nodeIiE9_M_valptrEv, symObjAddr: 0x6FC, symBinAddr: 0x100000E44, symSize: 0x20 }
  - { offset: 0x1C9DB, size: 0x8, addend: 0x0, symName: __ZNKSt8_Rb_treeIiiSt9_IdentityIiESt4lessIiESaIiEE5beginEv, symObjAddr: 0x6D4, symBinAddr: 0x100000E1C, symSize: 0x28 }
  - { offset: 0x1CA05, size: 0x8, addend: 0x0, symName: __ZNSt8_Rb_treeIiiSt9_IdentityIiESt4lessIiESaIiEE11upper_boundERKi, symObjAddr: 0x67C, symBinAddr: 0x100000DC4, symSize: 0x58 }
  - { offset: 0x1CA68, size: 0x8, addend: 0x0, symName: __ZNSt23_Rb_tree_const_iteratorIiEC1ERKSt17_Rb_tree_iteratorIiE, symObjAddr: 0x654, symBinAddr: 0x100000D9C, symSize: 0x28 }
  - { offset: 0x1CA97, size: 0x8, addend: 0x0, symName: __ZNSt8_Rb_treeIiiSt9_IdentityIiESt4lessIiESaIiEE15_M_insert_equalIRKiEESt17_Rb_tree_iteratorIiEOT_, symObjAddr: 0x5E4, symBinAddr: 0x100000D2C, symSize: 0x70 }
  - { offset: 0x1CB21, size: 0x8, addend: 0x0, symName: __ZNKSt8_Rb_treeIiiSt9_IdentityIiESt4lessIiESaIiEE13_M_begin_nodeEv, symObjAddr: 0x5A8, symBinAddr: 0x100000CF0, symSize: 0x3C }
  - { offset: 0x1CB5C, size: 0x8, addend: 0x0, symName: __ZNSt8_Rb_treeIiiSt9_IdentityIiESt4lessIiESaIiEE8_M_eraseEPSt13_Rb_tree_nodeIiE, symObjAddr: 0x544, symBinAddr: 0x100000C8C, symSize: 0x64 }
  - { offset: 0x1CBD5, size: 0x8, addend: 0x0, symName: __ZNSt15__new_allocatorISt13_Rb_tree_nodeIiEED2Ev, symObjAddr: 0x530, symBinAddr: 0x100000C78, symSize: 0x14 }
  - { offset: 0x1CC15, size: 0x8, addend: 0x0, symName: __ZNSt20_Rb_tree_key_compareISt4lessIiEEC2Ev, symObjAddr: 0x51C, symBinAddr: 0x100000C64, symSize: 0x14 }
  - { offset: 0x1CC51, size: 0x8, addend: 0x0, symName: __ZNSt8multisetIiSt4lessIiESaIiEE5eraseB5cxx11ESt23_Rb_tree_const_iteratorIiE, symObjAddr: 0x4E4, symBinAddr: 0x100000C2C, symSize: 0x38 }
  - { offset: 0x1CC8C, size: 0x8, addend: 0x0, symName: __ZNKSt23_Rb_tree_const_iteratorIiEdeEv, symObjAddr: 0x4C4, symBinAddr: 0x100000C0C, symSize: 0x20 }
  - { offset: 0x1CCB6, size: 0x8, addend: 0x0, symName: __ZNSt23_Rb_tree_const_iteratorIiEmmEi, symObjAddr: 0x484, symBinAddr: 0x100000BCC, symSize: 0x40 }
  - { offset: 0x1CCF6, size: 0x8, addend: 0x0, symName: __ZSteqRKSt23_Rb_tree_const_iteratorIiES2_, symObjAddr: 0x454, symBinAddr: 0x100000B9C, symSize: 0x30 }
  - { offset: 0x1CD35, size: 0x8, addend: 0x0, symName: __ZNKSt8multisetIiSt4lessIiESaIiEE5beginEv, symObjAddr: 0x438, symBinAddr: 0x100000B80, symSize: 0x1C }
  - { offset: 0x1CD5F, size: 0x8, addend: 0x0, symName: __ZNSt8multisetIiSt4lessIiESaIiEE11upper_boundERKi, symObjAddr: 0x400, symBinAddr: 0x100000B48, symSize: 0x38 }
  - { offset: 0x1CD9A, size: 0x8, addend: 0x0, symName: __ZNSt8multisetIiSt4lessIiESaIiEE6insertERKi, symObjAddr: 0x3C8, symBinAddr: 0x100000B10, symSize: 0x38 }
  - { offset: 0x1CDEF, size: 0x8, addend: 0x0, symName: __ZNSt8_Rb_treeIiiSt9_IdentityIiESt4lessIiESaIiEED1Ev, symObjAddr: 0x394, symBinAddr: 0x100000ADC, symSize: 0x34 }
  - { offset: 0x1CE45, size: 0x8, addend: 0x0, symName: __ZNSt8_Rb_treeIiiSt9_IdentityIiESt4lessIiESaIiEE13_Rb_tree_implIS3_Lb1EEC1Ev, symObjAddr: 0x350, symBinAddr: 0x100000A98, symSize: 0x44 }
  - { offset: 0x1CEB5, size: 0x8, addend: 0x0, symName: _main, symObjAddr: 0x304, symBinAddr: 0x100000A4C, symSize: 0x4C }
  - { offset: 0x1CEE5, size: 0x8, addend: 0x0, symName: __Z4initv, symObjAddr: 0x178, symBinAddr: 0x1000008C0, symSize: 0x18C }
  - { offset: 0x1CFC8, size: 0x8, addend: 0x0, symName: __ZNSt8multisetIiSt4lessIiESaIiEED1Ev, symObjAddr: 0x158, symBinAddr: 0x1000008A0, symSize: 0x20 }
  - { offset: 0x1D008, size: 0x8, addend: 0x0, symName: __ZNSt8multisetIiSt4lessIiESaIiEEC1Ev, symObjAddr: 0x138, symBinAddr: 0x100000880, symSize: 0x20 }
  - { offset: 0x1D048, size: 0x8, addend: 0x0, symName: __ZNSt8_Rb_treeIiiSt9_IdentityIiESt4lessIiESaIiEEC1Ev, symObjAddr: 0x118, symBinAddr: 0x100000860, symSize: 0x20 }
  - { offset: 0x1D08C, size: 0x8, addend: 0x0, symName: __ZNSt8_Rb_treeIiiSt9_IdentityIiESt4lessIiESaIiEE13_Rb_tree_implIS3_Lb1EED1Ev, symObjAddr: 0xEC, symBinAddr: 0x100000834, symSize: 0x2C }
  - { offset: 0x1D0D9, size: 0x8, addend: 0x0, symName: __Z8file_i_ov, symObjAddr: 0xA8, symBinAddr: 0x1000007F0, symSize: 0x44 }
  - { offset: 0x1D0F5, size: 0x8, addend: 0x0, symName: __ZNSt15_Rb_tree_header8_M_resetEv, symObjAddr: 0x6C, symBinAddr: 0x1000007B4, symSize: 0x3C }
  - { offset: 0x1D139, size: 0x8, addend: 0x0, symName: __ZNSt15_Rb_tree_headerC2Ev, symObjAddr: 0x44, symBinAddr: 0x10000078C, symSize: 0x28 }
  - { offset: 0x1D15F, size: 0x8, addend: 0x0, symName: __ZNKSt18_Rb_tree_node_base11_M_base_ptrEv, symObjAddr: 0x30, symBinAddr: 0x100000778, symSize: 0x14 }
  - { offset: 0x1D18C, size: 0x8, addend: 0x0, symName: __ZdlPvS_, symObjAddr: 0x18, symBinAddr: 0x100000760, symSize: 0x18 }
  - { offset: 0x1D1C2, size: 0x8, addend: 0x0, symName: __ZnwmPv, symObjAddr: 0x0, symBinAddr: 0x100000748, symSize: 0x18 }
...
